	.file	"hello_world.cpp"
	.local	_ZStL8__ioinit
	.comm	_ZStL8__ioinit,1,1
	.section	.rodata
.LC0:
	.string	"Hello world!"
	.text
	.globl	main
	.type	main, @function
main:
.LFB1020:
	.cfi_startproc
	leal	4(%esp), %ecx
	.cfi_def_cfa 1, 0
	andl	$-16, %esp
	pushl	-4(%ecx)
	pushl	%ebp
	.cfi_escape 0x10,0x5,0x2,0x75,0
	movl	%esp, %ebp
	pushl	%ecx
	.cfi_escape 0xf,0x3,0x75,0x7c,0x6
	subl	$4, %esp
	subl	$8, %esp
	pushl	$.LC0
	pushl	$_ZSt4cout
	call	_ZStlsISt11char_traitsIcEERSt13basic_ostreamIcT_ES5_PKc
	addl	$16, %esp
	subl	$8, %esp
	pushl	$_ZSt4endlIcSt11char_traitsIcEERSt13basic_ostreamIT_T0_ES6_
	pushl	%eax
	call	_ZNSolsEPFRSoS_E
	addl	$16, %esp
	movl	$0, %eax
	movl	-4(%ebp), %ecx
	.cfi_def_cfa 1, 0
	leave
	.cfi_restore 5
	leal	-4(%ecx), %esp
	.cfi_def_cfa 4, 4
	ret
	.cfi_endproc
.LFE1020:
	.size	main, .-main
	.type	_Z41__static_initialization_and_destruction_0ii, @function
_Z41__static_initialization_and_destruction_0ii:
.LFB1029:
	.cfi_startproc
	pushl	%ebp
	.cfi_def_cfa_offset 8
	.cfi_offset 5, -8
	movl	%esp, %ebp
	.cfi_def_cfa_register 5
	subl	$8, %esp
	cmpl	$1, 8(%ebp)
	jne	.L3
	cmpl	$65535, 12(%ebp)
	jne	.L3
	subl	$12, %esp
	pushl	$_ZStL8__ioinit
	call	_ZNSt8ios_base4InitC1Ev
	addl	$16, %esp
	subl	$4, %esp
	pushl	$__dso_handle
	pushl	$_ZStL8__ioinit
	pushl	$_ZNSt8ios_base4InitD1Ev
	call	__cxa_atexit
	addl	$16, %esp
.L3:
	leave
	.cfi_restore 5
	.cfi_def_cfa 4, 4
	ret
	.cfi_endproc
.LFE1029:
	.size	_Z41__static_initialization_and_destruction_0ii, .-_Z41__static_initialization_and_destruction_0ii
	.type	_GLOBAL__sub_I_main, @function
_GLOBAL__sub_I_main:
.LFB1030:
	.cfi_startproc
	pushl	%ebp
	.cfi_def_cfa_offset 8
	.cfi_offset 5, -8
	movl	%esp, %ebp
	.cfi_def_cfa_register 5
	subl	$8, %esp
	subl	$8, %esp
	pushl	$65535
	pushl	$1
	call	_Z41__static_initialization_and_destruction_0ii
	addl	$16, %esp
	leave
	.cfi_restore 5
	.cfi_def_cfa 4, 4
	ret
	.cfi_endproc
.LFE1030:
	.size	_GLOBAL__sub_I_main, .-_GLOBAL__sub_I_main
	.section	.init_array,"aw"
	.align 4
	.long	_GLOBAL__sub_I_main
	.hidden	__dso_handle
	.ident	"GCC: (Ubuntu 4.9.2-10ubuntu13) 4.9.2"
	.section	.note.GNU-stack,"",@progbits
